target datalayout = "e-m:e-p270:32:32-p271:32:32-p272:64:64-i64:64-i128:128-f80:128-n8:16:32:64-S128"
target triple = "x86_64-pc-linux-gnu"

%struct.timespec = type { i64, i64 }

@mi_clock_diff = internal global i64 0, align 8

; Function Attrs: nounwind uwtable
define hidden i64 @_mi_clock_now() #0 {
  %1 = alloca %struct.timespec, align 8
  call void @llvm.lifetime.start.p0(i64 16, ptr %1) #7
  %2 = call i32 @clock_gettime(i32 noundef 1, ptr noundef %1) #7
  %3 = getelementptr inbounds nuw %struct.timespec, ptr %1, i32 0, i32 0
  %4 = load i64, ptr %3, align 8, !tbaa !40
  %5 = mul nsw i64 %4, 1000
  %6 = getelementptr inbounds nuw %struct.timespec, ptr %1, i32 0, i32 1
  %7 = load i64, ptr %6, align 8, !tbaa !42
  %8 = sdiv i64 %7, 1000000
  %9 = add nsw i64 %5, %8
  call void @llvm.lifetime.end.p0(i64 16, ptr %1) #7
  ret i64 %9
}

; Function Attrs: nounwind uwtable
define hidden i64 @_mi_clock_end(i64 noundef %0) #0 {
  %2 = alloca i64, align 8
  %3 = alloca i64, align 8
  store i64 %0, ptr %2, align 8, !tbaa !8
  call void @llvm.lifetime.start.p0(i64 8, ptr %3) #7
  %4 = call i64 @_mi_clock_now()
  store i64 %4, ptr %3, align 8, !tbaa !8
  %5 = load i64, ptr %3, align 8, !tbaa !8
  %6 = load i64, ptr %2, align 8, !tbaa !8
  %7 = sub nsw i64 %5, %6
  %8 = load i64, ptr @mi_clock_diff, align 8, !tbaa !8
  %9 = sub nsw i64 %7, %8
  call void @llvm.lifetime.end.p0(i64 8, ptr %3) #7
  ret i64 %9
}