; Function Attrs: nounwind uwtable
define hidden i64 @_mi_clock_end(i64 noundef %0) local_unnamed_addr #2 {
  %2 = alloca %struct.timespec, align 8
  call void @llvm.lifetime.start.p0(i64 16, ptr nonnull %2) #10
  %3 = call i32 @clock_gettime(i32 noundef 1, ptr noundef nonnull %2) #10
  %4 = load i64, ptr %2, align 8, !tbaa !25
  %5 = mul nsw i64 %4, 1000
  %6 = getelementptr inbounds nuw i8, ptr %2, i64 8
  %7 = load i64, ptr %6, align 8, !tbaa !27
  %8 = sdiv i64 %7, 1000000
  call void @llvm.lifetime.end.p0(i64 16, ptr nonnull %2) #10
  %9 = load i64, ptr @mi_clock_diff, align 8, !tbaa !24
  %10 = add i64 %5, %8
  %11 = add i64 %0, %9
  %12 = sub i64 %10, %11
  ret i64 %12
}